target datalayout = "e-m:e-p270:32:32-p271:32:32-p272:64:64-i64:64-i128:128-f80:128-n8:16:32:64-S128"
target triple = "x86_64-unknown-linux-gnu"

%"class.hermes::(anonymous namespace)::GenJS" = type { ptr, i8, i32 }
%"class.std::variant" = type { %"struct.std::__detail::__variant::_Variant_base.base", [7 x i8] }
%"struct.std::__detail::__variant::_Variant_base.base" = type { %"struct.std::__detail::__variant::_Move_assign_base.base" }
%"struct.std::__detail::__variant::_Move_assign_base.base" = type { %"struct.std::__detail::__variant::_Copy_assign_base.base" }
%"struct.std::__detail::__variant::_Copy_assign_base.base" = type { %"struct.std::__detail::__variant::_Move_ctor_base.base" }
%"struct.std::__detail::__variant::_Move_ctor_base.base" = type { %"struct.std::__detail::__variant::_Copy_ctor_base.base" }
%"struct.std::__detail::__variant::_Copy_ctor_base.base" = type { %"struct.std::__detail::__variant::_Variant_storage.base" }
%"struct.std::__detail::__variant::_Variant_storage.base" = type <{ %"union.std::__detail::__variant::_Variadic_union", i8 }>
%"union.std::__detail::__variant::_Variadic_union" = type { %"union.std::__detail::__variant::_Variadic_union.0" }
%"union.std::__detail::__variant::_Variadic_union.0" = type { %"union.std::__detail::__variant::_Variadic_union.2" }
%"union.std::__detail::__variant::_Variadic_union.2" = type { %"struct.std::__detail::__variant::_Uninitialized.3" }
%"struct.std::__detail::__variant::_Uninitialized.3" = type { ptr }
%"class.llvh::raw_ostream" = type <{ ptr, ptr, ptr, ptr, i32, [4 x i8] }>
%"class.hermes::ESTree::Node" = type { %"class.llvh::ilist_node", i32, i32, %"class.llvh::SMRange", %"class.llvh::SMLoc" }
%"class.llvh::ilist_node" = type { %"class.llvh::ilist_node_impl" }
%"class.llvh::ilist_node_impl" = type { %"class.llvh::ilist_node_base" }
%"class.llvh::ilist_node_base" = type { ptr, ptr }
%"class.llvh::SMRange" = type { %"class.llvh::SMLoc", %"class.llvh::SMLoc" }
%"class.llvh::SMLoc" = type { ptr }
%"class.hermes::ESTree::PrivateNameNode" = type { %"class.hermes::ESTree::Node", ptr }

; Function Attrs: mustprogress nounwind uwtable
define internal void @_ZN6hermes6ESTree15visitESTreeNodeINS_12_GLOBAL__N_15GenJSEEEvRT_PNS0_4NodeES7_(ptr noundef nonnull align 8 dereferenceable(16) %v, ptr noundef %node, ptr noundef %parent) #0 {
entry:
  %v.addr = alloca ptr, align 8
  %node.addr = alloca ptr, align 8
  %parent.addr = alloca ptr, align 8
  %coerce = alloca %"class.std::variant", align 8
  store ptr %v, ptr %v.addr, align 8
  store ptr %node, ptr %node.addr, align 8
  store ptr %parent, ptr %parent.addr, align 8
  %0 = load ptr, ptr %v.addr, align 8
  %1 = load ptr, ptr %node.addr, align 8
  %2 = load ptr, ptr %parent.addr, align 8
  %call = call { ptr, i8 } @_ZN6hermes6ESTree24RecursiveVisitorDispatchINS_12_GLOBAL__N_15GenJSELb1EE5visitERS3_PNS0_4NodeES7_(ptr noundef nonnull align 8 dereferenceable(16) %0, ptr noundef %1, ptr noundef %2)
  %3 = getelementptr inbounds { ptr, i8 }, ptr %coerce, i32 0, i32 0
  %4 = extractvalue { ptr, i8 } %call, 0
  store ptr %4, ptr %3, align 8
  %5 = getelementptr inbounds { ptr, i8 }, ptr %coerce, i32 0, i32 1
  %6 = extractvalue { ptr, i8 } %call, 1
  store i8 %6, ptr %5, align 8
  ret void
}

; Function Attrs: mustprogress nounwind uwtable
define linkonce_odr hidden noundef nonnull align 8 dereferenceable(36) ptr @_ZN4llvh11raw_ostreamlsEc(ptr noundef nonnull align 8 dereferenceable(36) %this, i8 noundef signext %C) #0 comdat align 2 {
entry:
  %retval = alloca ptr, align 8
  %this.addr = alloca ptr, align 8
  %C.addr = alloca i8, align 1
  store ptr %this, ptr %this.addr, align 8
  store i8 %C, ptr %C.addr, align 1
  %this1 = load ptr, ptr %this.addr, align 8
  %OutBufCur = getelementptr inbounds %"class.llvh::raw_ostream", ptr %this1, i32 0, i32 3
  %0 = load ptr, ptr %OutBufCur, align 8
  %OutBufEnd = getelementptr inbounds %"class.llvh::raw_ostream", ptr %this1, i32 0, i32 2
  %1 = load ptr, ptr %OutBufEnd, align 8
  %cmp = icmp uge ptr %0, %1
  br i1 %cmp, label %if.then, label %if.end

if.then:                                          ; preds = %entry
  %2 = load i8, ptr %C.addr, align 1
  %call = call noundef nonnull align 8 dereferenceable(36) ptr @_ZN4llvh11raw_ostream5writeEh(ptr noundef nonnull align 8 dereferenceable(36) %this1, i8 noundef zeroext %2)
  store ptr %call, ptr %retval, align 8
  br label %return

if.end:                                           ; preds = %entry
  %3 = load i8, ptr %C.addr, align 1
  %OutBufCur2 = getelementptr inbounds %"class.llvh::raw_ostream", ptr %this1, i32 0, i32 3
  %4 = load ptr, ptr %OutBufCur2, align 8
  %incdec.ptr = getelementptr inbounds i8, ptr %4, i32 1
  store ptr %incdec.ptr, ptr %OutBufCur2, align 8
  store i8 %3, ptr %4, align 1
  store ptr %this1, ptr %retval, align 8
  br label %return

return:                                           ; preds = %if.end, %if.then
  %5 = load ptr, ptr %retval, align 8
  ret ptr %5
}

; Function Attrs: mustprogress nounwind uwtable
define internal void @_ZN6hermes12_GLOBAL__N_15GenJS5visitEPNS_6ESTree15PrivateNameNodeE(ptr noundef nonnull align 8 dereferenceable(16) %this, ptr noundef %node) #0 align 2 {
entry:
  %this.addr = alloca ptr, align 8
  %node.addr = alloca ptr, align 8
  store ptr %this, ptr %this.addr, align 8
  store ptr %node, ptr %node.addr, align 8
  %this1 = load ptr, ptr %this.addr, align 8
  %OS_ = getelementptr inbounds %"class.hermes::(anonymous namespace)::GenJS", ptr %this1, i32 0, i32 0
  %0 = load ptr, ptr %OS_, align 8
  %call = call noundef nonnull align 8 dereferenceable(36) ptr @_ZN4llvh11raw_ostreamlsEc(ptr noundef nonnull align 8 dereferenceable(36) %0, i8 noundef signext 35)
  %1 = load ptr, ptr %node.addr, align 8
  %_id = getelementptr inbounds %"class.hermes::ESTree::PrivateNameNode", ptr %1, i32 0, i32 1
  %2 = load ptr, ptr %_id, align 8
  %3 = load ptr, ptr %node.addr, align 8
  call void @_ZN6hermes6ESTree15visitESTreeNodeINS_12_GLOBAL__N_15GenJSEEEvRT_PNS0_4NodeES7_(ptr noundef nonnull align 8 dereferenceable(16) %this1, ptr noundef %2, ptr noundef %3)
  ret void
}