; Function Attrs: mustprogress nounwind uwtable
define internal fastcc void @_ZN6hermes12_GLOBAL__N_15GenJS5visitEPNS_6ESTree15PrivateNameNodeE(ptr noundef nonnull align 8 captures(none) dereferenceable(16) %this, ptr noundef readonly captures(none) %node) unnamed_addr #0 align 2 {
entry:
  %0 = load ptr, ptr %this, align 8
  %OutBufCur.i = getelementptr inbounds nuw i8, ptr %0, i64 24
  %1 = load ptr, ptr %OutBufCur.i, align 8
  %OutBufEnd.i = getelementptr inbounds nuw i8, ptr %0, i64 16
  %2 = load ptr, ptr %OutBufEnd.i, align 8
  %cmp.not.i = icmp ult ptr %1, %2
  br i1 %cmp.not.i, label %if.end.i, label %if.then.i

if.then.i:                                        ; preds = %entry
  %call.i = tail call noundef nonnull align 8 dereferenceable(36) ptr @_ZN4llvh11raw_ostream5writeEh(ptr noundef nonnull align 8 dereferenceable(36) %0, i8 noundef zeroext 35) #12
  br label %_ZN4llvh11raw_ostreamlsEc.exit

if.end.i:                                         ; preds = %entry
  %incdec.ptr.i = getelementptr inbounds nuw i8, ptr %1, i64 1
  store ptr %incdec.ptr.i, ptr %OutBufCur.i, align 8
  store i8 35, ptr %1, align 1
  br label %_ZN4llvh11raw_ostreamlsEc.exit

_ZN4llvh11raw_ostreamlsEc.exit:                   ; preds = %if.then.i, %if.end.i
  %_id = getelementptr inbounds nuw i8, ptr %node, i64 48
  %3 = load ptr, ptr %_id, align 8
  tail call fastcc void @_ZN6hermes6ESTree24RecursiveVisitorDispatchINS_12_GLOBAL__N_15GenJSELb1EE5visitERS3_PNS0_4NodeES7_(ptr noundef nonnull align 8 dereferenceable(16) %this, ptr noundef %3)
  ret void
}